target datalayout = "e-m:e-p270:32:32-p271:32:32-p272:64:64-i64:64-i128:128-f80:128-n8:16:32:64-S128"
target triple = "x86_64-pc-linux-gnu"

%struct.deparse_namespace = type { ptr, ptr, ptr, ptr, ptr, ptr, ptr, ptr, i8, ptr, ptr, ptr, ptr, ptr, ptr, ptr, ptr, ptr, i32, ptr }
%union.ListCell = type { ptr }
%struct.ForEachState = type { ptr, i32 }
%struct.List = type { i32, i32, i32, ptr, [0 x %union.ListCell] }
%struct.deparse_columns = type { i32, ptr, i32, ptr, ptr, i8, ptr, i32, i32, ptr, ptr, ptr, ptr }

; Function Attrs: nounwind uwtable
define internal zeroext i1 @colname_is_unique(ptr noundef %0, ptr noundef %1, ptr noundef %2) #0 {
  %4 = alloca i1, align 1
  %5 = alloca ptr, align 8
  %6 = alloca ptr, align 8
  %7 = alloca ptr, align 8
  %8 = alloca i32, align 4
  %9 = alloca ptr, align 8
  %10 = alloca i32, align 4
  %11 = alloca ptr, align 8
  %12 = alloca ptr, align 8
  %13 = alloca %struct.ForEachState, align 8
  %14 = alloca ptr, align 8
  %15 = alloca %struct.ForEachState, align 8
  %16 = alloca ptr, align 8
  store ptr %0, ptr %5, align 8
  store ptr %1, ptr %6, align 8
  store ptr %2, ptr %7, align 8
  call void @llvm.lifetime.start.p0(i64 4, ptr %8) #10
  call void @llvm.lifetime.start.p0(i64 8, ptr %9) #10
  %17 = load ptr, ptr %7, align 8
  %18 = getelementptr inbounds nuw %struct.deparse_columns, ptr %17, i32 0, i32 12
  %19 = load ptr, ptr %18, align 8
  %20 = icmp ne ptr %19, null
  br i1 %20, label %21, label %30

21:                                               ; preds = %3
  %22 = load ptr, ptr %7, align 8
  %23 = getelementptr inbounds nuw %struct.deparse_columns, ptr %22, i32 0, i32 12
  %24 = load ptr, ptr %23, align 8
  %25 = load ptr, ptr %5, align 8
  %26 = call ptr @hash_search(ptr noundef %24, ptr noundef %25, i32 noundef 0, ptr noundef null)
  %27 = icmp ne ptr %26, null
  br i1 %27, label %28, label %29

28:                                               ; preds = %21
  store i1 false, ptr %4, align 1
  store i32 1, ptr %10, align 4
  br label %194

29:                                               ; preds = %21
  br label %142

30:                                               ; preds = %3
  store i32 0, ptr %8, align 4
  br label %31

31:                                               ; preds = %57, %30
  %32 = load i32, ptr %8, align 4
  %33 = load ptr, ptr %7, align 8
  %34 = getelementptr inbounds nuw %struct.deparse_columns, ptr %33, i32 0, i32 0
  %35 = load i32, ptr %34, align 8
  %36 = icmp slt i32 %32, %35
  br i1 %36, label %37, label %60

37:                                               ; preds = %31
  call void @llvm.lifetime.start.p0(i64 8, ptr %11) #10
  %38 = load ptr, ptr %7, align 8
  %39 = getelementptr inbounds nuw %struct.deparse_columns, ptr %38, i32 0, i32 1
  %40 = load ptr, ptr %39, align 8
  %41 = load i32, ptr %8, align 4
  %42 = sext i32 %41 to i64
  %43 = getelementptr inbounds ptr, ptr %40, i64 %42
  %44 = load ptr, ptr %43, align 8
  store ptr %44, ptr %11, align 8
  %45 = load ptr, ptr %11, align 8
  %46 = icmp ne ptr %45, null
  br i1 %46, label %47, label %53

47:                                               ; preds = %37
  %48 = load ptr, ptr %11, align 8
  %49 = load ptr, ptr %5, align 8
  %50 = call i32 @strcmp(ptr noundef %48, ptr noundef %49) #12
  %51 = icmp eq i32 %50, 0
  br i1 %51, label %52, label %53

52:                                               ; preds = %47
  store i1 false, ptr %4, align 1
  store i32 1, ptr %10, align 4
  br label %54

53:                                               ; preds = %47, %37
  store i32 0, ptr %10, align 4
  br label %54

54:                                               ; preds = %53, %52
  call void @llvm.lifetime.end.p0(i64 8, ptr %11) #10
  %55 = load i32, ptr %10, align 4
  switch i32 %55, label %194 [
    i32 0, label %56
  ]

56:                                               ; preds = %54
  br label %57

57:                                               ; preds = %56
  %58 = load i32, ptr %8, align 4
  %59 = add i32 %58, 1
  store i32 %59, ptr %8, align 4
  br label %31, !llvm.loop !72

60:                                               ; preds = %31
  store i32 0, ptr %8, align 4
  br label %61

61:                                               ; preds = %87, %60
  %62 = load i32, ptr %8, align 4
  %63 = load ptr, ptr %7, align 8
  %64 = getelementptr inbounds nuw %struct.deparse_columns, ptr %63, i32 0, i32 2
  %65 = load i32, ptr %64, align 8
  %66 = icmp slt i32 %62, %65
  br i1 %66, label %67, label %90

67:                                               ; preds = %61
  call void @llvm.lifetime.start.p0(i64 8, ptr %12) #10
  %68 = load ptr, ptr %7, align 8
  %69 = getelementptr inbounds nuw %struct.deparse_columns, ptr %68, i32 0, i32 3
  %70 = load ptr, ptr %69, align 8
  %71 = load i32, ptr %8, align 4
  %72 = sext i32 %71 to i64
  %73 = getelementptr inbounds ptr, ptr %70, i64 %72
  %74 = load ptr, ptr %73, align 8
  store ptr %74, ptr %12, align 8
  %75 = load ptr, ptr %12, align 8
  %76 = icmp ne ptr %75, null
  br i1 %76, label %77, label %83

77:                                               ; preds = %67
  %78 = load ptr, ptr %12, align 8
  %79 = load ptr, ptr %5, align 8
  %80 = call i32 @strcmp(ptr noundef %78, ptr noundef %79) #12
  %81 = icmp eq i32 %80, 0
  br i1 %81, label %82, label %83

82:                                               ; preds = %77
  store i1 false, ptr %4, align 1
  store i32 1, ptr %10, align 4
  br label %84

83:                                               ; preds = %77, %67
  store i32 0, ptr %10, align 4
  br label %84

84:                                               ; preds = %83, %82
  call void @llvm.lifetime.end.p0(i64 8, ptr %12) #10
  %85 = load i32, ptr %10, align 4
  switch i32 %85, label %194 [
    i32 0, label %86
  ]

86:                                               ; preds = %84
  br label %87

87:                                               ; preds = %86
  %88 = load i32, ptr %8, align 4
  %89 = add i32 %88, 1
  store i32 %89, ptr %8, align 4
  br label %61, !llvm.loop !73

90:                                               ; preds = %61
  call void @llvm.lifetime.start.p0(i64 16, ptr %13) #10
  %91 = getelementptr inbounds nuw %struct.ForEachState, ptr %13, i32 0, i32 0
  %92 = load ptr, ptr %7, align 8
  %93 = getelementptr inbounds nuw %struct.deparse_columns, ptr %92, i32 0, i32 6
  %94 = load ptr, ptr %93, align 8
  store ptr %94, ptr %91, align 8
  %95 = getelementptr inbounds nuw %struct.ForEachState, ptr %13, i32 0, i32 1
  store i32 0, ptr %95, align 8
  %96 = getelementptr i8, ptr %13, i64 12
  call void @llvm.memset.p0.i64(ptr align 4 %96, i8 0, i64 4, i1 false)
  br label %97

97:                                               ; preds = %135, %90
  %98 = getelementptr inbounds nuw %struct.ForEachState, ptr %13, i32 0, i32 0
  %99 = load ptr, ptr %98, align 8
  %100 = icmp ne ptr %99, null
  br i1 %100, label %101, label %118

101:                                              ; preds = %97
  %102 = getelementptr inbounds nuw %struct.ForEachState, ptr %13, i32 0, i32 1
  %103 = load i32, ptr %102, align 8
  %104 = getelementptr inbounds nuw %struct.ForEachState, ptr %13, i32 0, i32 0
  %105 = load ptr, ptr %104, align 8
  %106 = getelementptr inbounds nuw %struct.List, ptr %105, i32 0, i32 1
  %107 = load i32, ptr %106, align 4
  %108 = icmp slt i32 %103, %107
  br i1 %108, label %109, label %118

109:                                              ; preds = %101
  %110 = getelementptr inbounds nuw %struct.ForEachState, ptr %13, i32 0, i32 0
  %111 = load ptr, ptr %110, align 8
  %112 = getelementptr inbounds nuw %struct.List, ptr %111, i32 0, i32 3
  %113 = load ptr, ptr %112, align 8
  %114 = getelementptr inbounds nuw %struct.ForEachState, ptr %13, i32 0, i32 1
  %115 = load i32, ptr %114, align 8
  %116 = sext i32 %115 to i64
  %117 = getelementptr inbounds %union.ListCell, ptr %113, i64 %116
  store ptr %117, ptr %9, align 8
  br label %119

118:                                              ; preds = %101, %97
  store ptr null, ptr %9, align 8
  br label %119

119:                                              ; preds = %118, %109
  %120 = phi i32 [ 1, %109 ], [ 0, %118 ]
  %121 = icmp ne i32 %120, 0
  br i1 %121, label %123, label %122

122:                                              ; preds = %119
  store i32 8, ptr %10, align 4
  br label %139

123:                                              ; preds = %119
  call void @llvm.lifetime.start.p0(i64 8, ptr %14) #10
  %124 = load ptr, ptr %9, align 8
  %125 = load ptr, ptr %124, align 8
  store ptr %125, ptr %14, align 8
  %126 = load ptr, ptr %14, align 8
  %127 = load ptr, ptr %5, align 8
  %128 = call i32 @strcmp(ptr noundef %126, ptr noundef %127) #12
  %129 = icmp eq i32 %128, 0
  br i1 %129, label %130, label %131

130:                                              ; preds = %123
  store i1 false, ptr %4, align 1
  store i32 1, ptr %10, align 4
  br label %132

131:                                              ; preds = %123
  store i32 0, ptr %10, align 4
  br label %132

132:                                              ; preds = %131, %130
  call void @llvm.lifetime.end.p0(i64 8, ptr %14) #10
  %133 = load i32, ptr %10, align 4
  switch i32 %133, label %139 [
    i32 0, label %134
  ]

134:                                              ; preds = %132
  br label %135

135:                                              ; preds = %134
  %136 = getelementptr inbounds nuw %struct.ForEachState, ptr %13, i32 0, i32 1
  %137 = load i32, ptr %136, align 8
  %138 = add i32 %137, 1
  store i32 %138, ptr %136, align 8
  br label %97, !llvm.loop !74

139:                                              ; preds = %132, %122
  call void @llvm.lifetime.end.p0(i64 16, ptr %13) #10
  %140 = load i32, ptr %10, align 4
  switch i32 %140, label %194 [
    i32 8, label %141
  ]

141:                                              ; preds = %139
  br label %142

142:                                              ; preds = %141, %29
  call void @llvm.lifetime.start.p0(i64 16, ptr %15) #10
  %143 = getelementptr inbounds nuw %struct.ForEachState, ptr %15, i32 0, i32 0
  %144 = load ptr, ptr %6, align 8
  %145 = getelementptr inbounds nuw %struct.deparse_namespace, ptr %144, i32 0, i32 9
  %146 = load ptr, ptr %145, align 8
  store ptr %146, ptr %143, align 8
  %147 = getelementptr inbounds nuw %struct.ForEachState, ptr %15, i32 0, i32 1
  store i32 0, ptr %147, align 8
  %148 = getelementptr i8, ptr %15, i64 12
  call void @llvm.memset.p0.i64(ptr align 4 %148, i8 0, i64 4, i1 false)
  br label %149

149:                                              ; preds = %187, %142
  %150 = getelementptr inbounds nuw %struct.ForEachState, ptr %15, i32 0, i32 0
  %151 = load ptr, ptr %150, align 8
  %152 = icmp ne ptr %151, null
  br i1 %152, label %153, label %170

153:                                              ; preds = %149
  %154 = getelementptr inbounds nuw %struct.ForEachState, ptr %15, i32 0, i32 1
  %155 = load i32, ptr %154, align 8
  %156 = getelementptr inbounds nuw %struct.ForEachState, ptr %15, i32 0, i32 0
  %157 = load ptr, ptr %156, align 8
  %158 = getelementptr inbounds nuw %struct.List, ptr %157, i32 0, i32 1
  %159 = load i32, ptr %158, align 4
  %160 = icmp slt i32 %155, %159
  br i1 %160, label %161, label %170

161:                                              ; preds = %153
  %162 = getelementptr inbounds nuw %struct.ForEachState, ptr %15, i32 0, i32 0
  %163 = load ptr, ptr %162, align 8
  %164 = getelementptr inbounds nuw %struct.List, ptr %163, i32 0, i32 3
  %165 = load ptr, ptr %164, align 8
  %166 = getelementptr inbounds nuw %struct.ForEachState, ptr %15, i32 0, i32 1
  %167 = load i32, ptr %166, align 8
  %168 = sext i32 %167 to i64
  %169 = getelementptr inbounds %union.ListCell, ptr %165, i64 %168
  store ptr %169, ptr %9, align 8
  br label %171

170:                                              ; preds = %153, %149
  store ptr null, ptr %9, align 8
  br label %171

171:                                              ; preds = %170, %161
  %172 = phi i32 [ 1, %161 ], [ 0, %170 ]
  %173 = icmp ne i32 %172, 0
  br i1 %173, label %175, label %174

174:                                              ; preds = %171
  store i32 11, ptr %10, align 4
  br label %191

175:                                              ; preds = %171
  call void @llvm.lifetime.start.p0(i64 8, ptr %16) #10
  %176 = load ptr, ptr %9, align 8
  %177 = load ptr, ptr %176, align 8
  store ptr %177, ptr %16, align 8
  %178 = load ptr, ptr %16, align 8
  %179 = load ptr, ptr %5, align 8
  %180 = call i32 @strcmp(ptr noundef %178, ptr noundef %179) #12
  %181 = icmp eq i32 %180, 0
  br i1 %181, label %182, label %183

182:                                              ; preds = %175
  store i1 false, ptr %4, align 1
  store i32 1, ptr %10, align 4
  br label %184

183:                                              ; preds = %175
  store i32 0, ptr %10, align 4
  br label %184

184:                                              ; preds = %183, %182
  call void @llvm.lifetime.end.p0(i64 8, ptr %16) #10
  %185 = load i32, ptr %10, align 4
  switch i32 %185, label %191 [
    i32 0, label %186
  ]

186:                                              ; preds = %184
  br label %187

187:                                              ; preds = %186
  %188 = getelementptr inbounds nuw %struct.ForEachState, ptr %15, i32 0, i32 1
  %189 = load i32, ptr %188, align 8
  %190 = add i32 %189, 1
  store i32 %190, ptr %188, align 8
  br label %149, !llvm.loop !75

191:                                              ; preds = %184, %174
  call void @llvm.lifetime.end.p0(i64 16, ptr %15) #10
  %192 = load i32, ptr %10, align 4
  switch i32 %192, label %194 [
    i32 11, label %193
  ]

193:                                              ; preds = %191
  store i1 true, ptr %4, align 1
  store i32 1, ptr %10, align 4
  br label %194

194:                                              ; preds = %193, %191, %139, %84, %54, %28
  call void @llvm.lifetime.end.p0(i64 8, ptr %9) #10
  call void @llvm.lifetime.end.p0(i64 4, ptr %8) #10
  %195 = load i1, ptr %4, align 1
  ret i1 %195
}