; Function Attrs: nounwind uwtable
define internal fastcc noundef zeroext i1 @colname_is_unique(ptr noundef %0, ptr noundef readonly captures(none) %1, ptr noundef readonly captures(none) %2) unnamed_addr #0 {
  %4 = getelementptr inbounds nuw i8, ptr %2, i64 88
  %5 = load ptr, ptr %4, align 8
  %.not = icmp eq ptr %5, null
  br i1 %.not, label %.preheader86, label %10

.preheader86:                                     ; preds = %3
  %6 = load i32, ptr %2, align 8
  %7 = icmp sgt i32 %6, 0
  br i1 %7, label %.lr.ph, label %.preheader

.lr.ph:                                           ; preds = %.preheader86
  %8 = getelementptr inbounds nuw i8, ptr %2, i64 8
  %9 = load ptr, ptr %8, align 8
  %wide.trip.count = zext nneg i32 %6 to i64
  br label %17

10:                                               ; preds = %3
  %11 = tail call ptr @hash_search(ptr noundef nonnull %5, ptr noundef %0, i32 noundef 0, ptr noundef null) #11
  %.not69 = icmp eq ptr %11, null
  br i1 %.not69, label %.critedge76, label %.thread80

.preheader:                                       ; preds = %.critedge, %.preheader86
  %12 = getelementptr inbounds nuw i8, ptr %2, i64 16
  %13 = load i32, ptr %12, align 8
  %14 = icmp sgt i32 %13, 0
  br i1 %14, label %.lr.ph90, label %._crit_edge

.lr.ph90:                                         ; preds = %.preheader
  %15 = getelementptr inbounds nuw i8, ptr %2, i64 24
  %16 = load ptr, ptr %15, align 8
  %wide.trip.count115 = zext nneg i32 %13 to i64
  br label %23

17:                                               ; preds = %.lr.ph, %.critedge
  %indvars.iv = phi i64 [ 0, %.lr.ph ], [ %indvars.iv.next, %.critedge ]
  %18 = getelementptr inbounds nuw ptr, ptr %9, i64 %indvars.iv
  %19 = load ptr, ptr %18, align 8
  %.not68 = icmp eq ptr %19, null
  br i1 %.not68, label %.critedge, label %20

20:                                               ; preds = %17
  %21 = tail call i32 @strcmp(ptr noundef nonnull dereferenceable(1) %19, ptr noundef nonnull dereferenceable(1) %0) #13
  %22 = icmp eq i32 %21, 0
  br i1 %22, label %.thread80, label %.critedge

.critedge:                                        ; preds = %20, %17
  %indvars.iv.next = add nuw nsw i64 %indvars.iv, 1
  %exitcond.not = icmp eq i64 %indvars.iv.next, %wide.trip.count
  br i1 %exitcond.not, label %.preheader, label %17, !llvm.loop !40

23:                                               ; preds = %.lr.ph90, %.critedge74
  %indvars.iv112 = phi i64 [ 0, %.lr.ph90 ], [ %indvars.iv.next113, %.critedge74 ]
  %24 = getelementptr inbounds nuw ptr, ptr %16, i64 %indvars.iv112
  %25 = load ptr, ptr %24, align 8
  %.not67 = icmp eq ptr %25, null
  br i1 %.not67, label %.critedge74, label %26

26:                                               ; preds = %23
  %27 = tail call i32 @strcmp(ptr noundef nonnull dereferenceable(1) %25, ptr noundef nonnull dereferenceable(1) %0) #13
  %28 = icmp eq i32 %27, 0
  br i1 %28, label %.thread80, label %.critedge74

.critedge74:                                      ; preds = %26, %23
  %indvars.iv.next113 = add nuw nsw i64 %indvars.iv112, 1
  %exitcond116.not = icmp eq i64 %indvars.iv.next113, %wide.trip.count115
  br i1 %exitcond116.not, label %._crit_edge, label %23, !llvm.loop !41

._crit_edge:                                      ; preds = %.critedge74, %.preheader
  %29 = getelementptr inbounds nuw i8, ptr %2, i64 48
  %30 = load ptr, ptr %29, align 8
  %.not64 = icmp eq ptr %30, null
  br i1 %.not64, label %.critedge76, label %.lr.ph93

.lr.ph93:                                         ; preds = %._crit_edge
  %31 = getelementptr inbounds nuw i8, ptr %30, i64 4
  %32 = load i32, ptr %31, align 4
  %33 = icmp sgt i32 %32, 0
  br i1 %33, label %.lr.ph96, label %.critedge76

.lr.ph96:                                         ; preds = %.lr.ph93
  %34 = getelementptr inbounds nuw i8, ptr %30, i64 16
  %35 = load ptr, ptr %34, align 8
  %wide.trip.count120 = zext nneg i32 %32 to i64
  br label %37

36:                                               ; preds = %37
  %indvars.iv.next118 = add nuw nsw i64 %indvars.iv117, 1
  %exitcond121.not = icmp eq i64 %indvars.iv.next118, %wide.trip.count120
  br i1 %exitcond121.not, label %.critedge76, label %37

37:                                               ; preds = %.lr.ph96, %36
  %indvars.iv117 = phi i64 [ 0, %.lr.ph96 ], [ %indvars.iv.next118, %36 ]
  %38 = getelementptr inbounds nuw %union.ListCell, ptr %35, i64 %indvars.iv117
  %39 = load ptr, ptr %38, align 8
  %40 = tail call i32 @strcmp(ptr noundef nonnull dereferenceable(1) %39, ptr noundef nonnull dereferenceable(1) %0) #13
  %.not66 = icmp eq i32 %40, 0
  br i1 %.not66, label %.thread80, label %36

.critedge76:                                      ; preds = %36, %._crit_edge, %.lr.ph93, %10
  %41 = getelementptr inbounds nuw i8, ptr %1, i64 72
  %42 = load ptr, ptr %41, align 8
  %43 = getelementptr inbounds nuw i8, ptr %42, i64 16
  %.not70 = icmp eq ptr %42, null
  br i1 %.not70, label %.thread80, label %.lr.ph98

.lr.ph98:                                         ; preds = %.critedge76
  %44 = getelementptr inbounds nuw i8, ptr %42, i64 4
  %45 = load i32, ptr %44, align 4
  %46 = icmp sgt i32 %45, 0
  br i1 %46, label %.lr.ph106, label %.thread80

.lr.ph106:                                        ; preds = %.lr.ph98
  %47 = load ptr, ptr %43, align 8
  %wide.trip.count125 = zext nneg i32 %45 to i64
  br label %48

48:                                               ; preds = %48, %.lr.ph106
  %indvars.iv122 = phi i64 [ 0, %.lr.ph106 ], [ %indvars.iv.next123, %48 ]
  %49 = getelementptr inbounds nuw %union.ListCell, ptr %47, i64 %indvars.iv122
  %50 = load ptr, ptr %49, align 8
  %51 = tail call i32 @strcmp(ptr noundef nonnull dereferenceable(1) %50, ptr noundef nonnull dereferenceable(1) %0) #13
  %.not72.not = icmp ne i32 %51, 0
  %indvars.iv.next123 = add nuw nsw i64 %indvars.iv122, 1
  %exitcond126.not = icmp ne i64 %indvars.iv.next123, %wide.trip.count125
  %or.cond.not = select i1 %.not72.not, i1 %exitcond126.not, i1 false
  br i1 %or.cond.not, label %48, label %.thread80

.thread80:                                        ; preds = %20, %26, %37, %48, %.critedge76, %.lr.ph98, %10
  %.0 = phi i1 [ false, %10 ], [ true, %.critedge76 ], [ true, %.lr.ph98 ], [ %.not72.not, %48 ], [ false, %37 ], [ false, %26 ], [ false, %20 ]
  ret i1 %.0
}